target datalayout = "e-m:e-p270:32:32-p271:32:32-p272:64:64-i64:64-i128:128-f80:128-n8:16:32:64-S128"
target triple = "x86_64-pc-linux-gnu"

%struct.ImVec2 = type { float, float }
%struct.ImRect = type { %struct.ImVec2, %struct.ImVec2 }
%struct.ImGuiWindow = type <{ ptr, ptr, i32, i32, i32, [4 x i8], ptr, %struct.ImVec2, %struct.ImVec2, %struct.ImVec2, %struct.ImVec2, %struct.ImVec2, %struct.ImVec2, %struct.ImVec2, float, float, float, float, float, float, float, float, float, float, i32, i32, i32, i32, %struct.ImVec2, %struct.ImVec2, %struct.ImVec2, %struct.ImVec2, %struct.ImVec2, %struct.ImVec2, i8, i8, i8, i8, i8, i8, i8, i8, i8, i8, i8, i8, i8, i8, i8, i8, i16, i16, i16, i16, i16, i8, i8, i8, [3 x i8], i32, i8, i8, i8, i8, i32, %struct.ImVec2, %struct.ImVec2, [4 x i8], %struct.ImVector, %struct.ImGuiWindowTempData, %struct.ImRect, %struct.ImRect, %struct.ImRect, %struct.ImRect, %struct.ImRect, %struct.ImRect, %struct.ImRect, %struct.ImVec2ih, %struct.ImVec2ih, i32, float, float, [4 x i8], %struct.ImGuiStorage, %struct.ImVector.3, float, float, float, i32, ptr, %struct.ImDrawList, ptr, ptr, ptr, ptr, ptr, ptr, ptr, ptr, [2 x i32], [2 x %struct.ImRect], [2 x %struct.ImVec2], i32, i32, i32, i8, [3 x i8] }>
%struct.ImVector = type { i32, i32, ptr }
%struct.ImGuiWindowTempData = type { %struct.ImVec2, %struct.ImVec2, %struct.ImVec2, %struct.ImVec2, %struct.ImVec2, %struct.ImVec2, %struct.ImVec2, float, float, i8, i8, %struct.ImVec1, %struct.ImVec1, %struct.ImVec1, %struct.ImVec2, i32, i16, i16, i8, i8, i8, i8, %struct.ImVec2, %struct.ImGuiMenuColumns, i32, i32, %struct.ImVector.0, ptr, ptr, i32, i32, i32, i32, i32, i32, float, float, %struct.ImVector.1, %struct.ImVector.1 }
%struct.ImVec1 = type { float }
%struct.ImGuiMenuColumns = type <{ i32, i32, i16, i16, i16, i16, i16, [4 x i16], [2 x i8] }>
%struct.ImVector.0 = type { i32, i32, ptr }
%struct.ImVector.1 = type { i32, i32, ptr }
%struct.ImVec2ih = type { i16, i16 }
%struct.ImGuiStorage = type { %struct.ImVector.2 }
%struct.ImVector.2 = type { i32, i32, ptr }
%struct.ImVector.3 = type { i32, i32, ptr }
%struct.ImDrawList = type { %struct.ImVector.4, %struct.ImVector.5, %struct.ImVector.6, i32, i32, ptr, ptr, ptr, %struct.ImVector.7, %struct.ImDrawCmdHeader, %struct.ImDrawListSplitter, %struct.ImVector.9, %struct.ImVector.10, %struct.ImVector.11, float, ptr }
%struct.ImVector.4 = type { i32, i32, ptr }
%struct.ImVector.5 = type { i32, i32, ptr }
%struct.ImVector.6 = type { i32, i32, ptr }
%struct.ImVector.7 = type { i32, i32, ptr }
%struct.ImDrawCmdHeader = type <{ %struct.ImVec4, i64, i32, [4 x i8] }>
%struct.ImVec4 = type { float, float, float, float }
%struct.ImDrawListSplitter = type { i32, i32, %struct.ImVector.8 }
%struct.ImVector.8 = type { i32, i32, ptr }
%struct.ImVector.9 = type { i32, i32, ptr }
%struct.ImVector.10 = type { i32, i32, ptr }
%struct.ImVector.11 = type { i32, i32, ptr }
%struct.ImGuiContext = type { i8, i8, %struct.ImGuiIO, %struct.ImGuiPlatformIO, %struct.ImGuiStyle, ptr, float, float, float, float, %struct.ImDrawListSharedData, double, i32, i32, i32, i32, i8, i8, i8, i8, ptr, [16 x i8], %struct.ImVector.12, %struct.ImVector.12, i32, i32, %struct.ImVector.0, %struct.ImVector.0, %struct.ImVector.0, %struct.ImVector.13, %struct.ImGuiStorage, i32, float, i32, ptr, ptr, ptr, ptr, ptr, ptr, %struct.ImVec2, i32, i32, float, %struct.ImVec2, %struct.ImVec2, i32, i32, i32, i32, i32, float, float, i8, i8, i8, i32, i32, float, i8, i8, i8, i8, i8, i8, i8, i8, %struct.ImVec2, ptr, i32, i32, %struct.ImGuiDeactivatedItemData, %struct.ImGuiDataTypeStorage, i32, float, double, double, double, %struct.ImBitArray, [154 x %struct.ImGuiKeyOwnerData], %struct.ImGuiKeyRoutingTable, i32, i8, i32, i32, i32, i32, %struct.ImGuiNextItemData, %struct.ImGuiLastItemData, %struct.ImGuiNextWindowData, i8, i32, %struct.ImVector.15, %struct.ImVector.16, %struct.ImVector.17, %struct.ImVector.18, %struct.ImVector.19, %struct.ImVector.20, %struct.ImVector.21, %struct.ImVector.21, %struct.ImVector.22, %struct.ImVector.23, i8, i8, i8, i8, i32, ptr, i32, i32, i32, i32, i32, i32, %struct.ImVector.18, i32, float, i32, i32, i32, i64, i8, i8, i8, i8, %struct.ImGuiNavItemData, i8, i8, i8, i32, i32, i32, i32, i32, i32, %struct.ImRect, %struct.ImRect, i32, i32, i32, %struct.ImGuiNavItemData, %struct.ImGuiNavItemData, %struct.ImGuiNavItemData, %struct.ImGuiNavItemData, i32, i32, i32, i32, i8, i8, i32, i32, ptr, ptr, ptr, float, float, i8, i32, %struct.ImVec2, %struct.ImVec2, float, i8, i8, i8, i32, i32, i32, [4 x i8], %struct.ImGuiPayload, %struct.ImRect, %struct.ImRect, i32, i32, float, i32, i32, i32, i32, %struct.ImVector.11, [16 x i8], i32, %struct.ImVector.24, ptr, i32, i32, %struct.ImVector.25, %struct.ImPool, %struct.ImVector.1, %struct.ImVector.8, ptr, %struct.ImPool.27, %struct.ImVector.29, %struct.ImVector.30, %struct.ImGuiBoxSelectState, ptr, i32, %struct.ImVector.31, %struct.ImPool.32, i32, i32, float, float, i32, i32, i32, float, %struct.ImVec2, %struct.ImGuiInputTextState, %struct.ImGuiInputTextDeactivatedState, %struct.ImFont, i32, %struct.ImGuiDataTypeStorage, i32, i32, i32, i32, i32, float, float, i32, %struct.ImVec4, %struct.ImGuiComboPreviewData, %struct.ImRect, i8, i16, float, float, float, i8, i8, float, float, float, i16, i16, ptr, %struct.ImVector.34, %struct.ImVector, %struct.ImGuiTypingSelectState, %struct.ImGuiPlatformImeData, %struct.ImGuiPlatformImeData, i8, float, %struct.ImGuiTextBuffer, %struct.ImVector.36, %struct.ImChunkStream, %struct.ImChunkStream.37, %struct.ImVector.38, i32, [10 x ptr], i8, i32, ptr, ptr, %struct.ImGuiTextBuffer, ptr, ptr, float, i8, i32, i32, i32, ptr, ptr, %struct.ImVec2, i8, i32, %struct.ImGuiErrorRecoveryState, ptr, i32, i32, %struct.ImGuiTextBuffer, %struct.ImGuiTextIndex, i32, i32, i8, i8, i8, i32, i8, i8, i8, i32, float, %struct.ImVec4, %struct.ImGuiMetricsConfig, %struct.ImGuiIDStackTool, %struct.ImGuiDebugAllocInfo, [60 x float], i32, i32, float, i32, i32, i32, %struct.ImVector.34, [64 x i8] }
%struct.ImGuiIO = type { i32, i32, %struct.ImVec2, float, float, ptr, ptr, ptr, ptr, float, i8, ptr, %struct.ImVec2, i8, i8, i8, i8, i8, i8, i8, i8, i8, i8, i8, i8, i8, i8, i8, i8, i8, float, float, float, float, float, float, i8, i8, i8, i8, i8, i8, i8, i8, i8, i8, ptr, ptr, ptr, ptr, ptr, i8, i8, i8, i8, i8, i8, i8, float, i32, i32, i32, i32, %struct.ImVec2, ptr, %struct.ImVec2, [5 x i8], float, float, i32, i8, i8, i8, i8, i32, [154 x %struct.ImGuiKeyData], i8, %struct.ImVec2, [5 x %struct.ImVec2], [5 x double], [5 x i8], [5 x i8], [5 x i16], [5 x i16], [5 x i8], [5 x double], [5 x i8], [5 x i8], i8, i8, [5 x float], [5 x float], [5 x float], float, i8, i8, i16, %struct.ImVector.5, ptr, ptr, ptr }
%struct.ImGuiKeyData = type { i8, float, float, float }
%struct.ImGuiPlatformIO = type { ptr, ptr, ptr, ptr, ptr, ptr, ptr, i16, ptr }
%struct.ImGuiStyle = type { float, float, %struct.ImVec2, float, float, float, %struct.ImVec2, %struct.ImVec2, i32, float, float, float, float, %struct.ImVec2, float, float, %struct.ImVec2, %struct.ImVec2, %struct.ImVec2, %struct.ImVec2, float, float, float, float, float, float, float, float, float, float, float, float, float, float, %struct.ImVec2, i32, %struct.ImVec2, %struct.ImVec2, float, %struct.ImVec2, %struct.ImVec2, %struct.ImVec2, %struct.ImVec2, float, i8, i8, i8, float, float, [56 x %struct.ImVec4], float, float, float, i32, i32 }
%struct.ImDrawListSharedData = type <{ %struct.ImVec2, ptr, ptr, float, float, float, float, float, i32, %struct.ImVec4, %struct.ImVector.7, [48 x %struct.ImVec2], float, [64 x i8], [4 x i8] }>
%struct.ImVector.12 = type { i32, i32, ptr }
%struct.ImVector.13 = type { i32, i32, ptr }
%struct.ImGuiDeactivatedItemData = type { i32, i32, i8, i8 }
%struct.ImBitArray = type { [5 x i32] }
%struct.ImGuiKeyOwnerData = type <{ i32, i32, i8, i8, [2 x i8] }>
%struct.ImGuiKeyRoutingTable = type { [154 x i16], %struct.ImVector.14, %struct.ImVector.14 }
%struct.ImVector.14 = type { i32, i32, ptr }
%struct.ImGuiNextItemData = type <{ i32, i32, i32, [4 x i8], i64, float, i32, i32, i8, i8, %struct.ImGuiDataTypeStorage, [2 x i8], i32, [4 x i8] }>
%struct.ImGuiLastItemData = type { i32, i32, i32, %struct.ImRect, %struct.ImRect, %struct.ImRect, %struct.ImRect, i32 }
%struct.ImGuiNextWindowData = type { i32, i32, i32, i32, %struct.ImVec2, %struct.ImVec2, %struct.ImVec2, %struct.ImVec2, %struct.ImVec2, i32, i32, i8, %struct.ImRect, ptr, ptr, float, %struct.ImVec2, i32 }
%struct.ImVector.15 = type { i32, i32, ptr }
%struct.ImVector.16 = type { i32, i32, ptr }
%struct.ImVector.17 = type { i32, i32, ptr }
%struct.ImVector.19 = type { i32, i32, ptr }
%struct.ImVector.20 = type { i32, i32, ptr }
%struct.ImVector.21 = type { i32, i32, ptr }
%struct.ImVector.22 = type { i32, i32, ptr }
%struct.ImVector.23 = type { i32, i32, ptr }
%struct.ImVector.18 = type { i32, i32, ptr }
%struct.ImGuiNavItemData = type { ptr, i32, i32, %struct.ImRect, i32, float, float, float, i64 }
%struct.ImGuiPayload = type <{ ptr, i32, i32, i32, i32, [33 x i8], i8, i8, [5 x i8] }>
%struct.ImVector.24 = type { i32, i32, ptr }
%struct.ImVector.25 = type { i32, i32, ptr }
%struct.ImPool = type { %struct.ImVector.26, %struct.ImGuiStorage, i32, i32 }
%struct.ImVector.26 = type { i32, i32, ptr }
%struct.ImPool.27 = type { %struct.ImVector.28, %struct.ImGuiStorage, i32, i32 }
%struct.ImVector.28 = type { i32, i32, ptr }
%struct.ImVector.29 = type { i32, i32, ptr }
%struct.ImVector.30 = type { i32, i32, ptr }
%struct.ImGuiBoxSelectState = type <{ i32, i8, i8, i8, i8, i8, i16, i8, %struct.ImVec2, %struct.ImVec2, %struct.ImVec2, [4 x i8], ptr, i8, [3 x i8], %struct.ImRect, %struct.ImRect, %struct.ImRect, [4 x i8] }>
%struct.ImVector.31 = type { i32, i32, ptr }
%struct.ImPool.32 = type { %struct.ImVector.33, %struct.ImGuiStorage, i32, i32 }
%struct.ImVector.33 = type { i32, i32, ptr }
%struct.ImGuiInputTextState = type <{ ptr, ptr, i32, i32, i32, [4 x i8], ptr, %struct.ImVector.34, %struct.ImVector.34, %struct.ImVector.34, i32, %struct.ImVec2, float, i8, i8, i8, i8, i32, i32, [4 x i8] }>
%struct.ImGuiInputTextDeactivatedState = type { i32, %struct.ImVector.34 }
%struct.ImFont = type <{ %struct.ImVector.1, float, float, %struct.ImVector.5, %struct.ImVector.35, ptr, ptr, ptr, i16, i16, i16, i16, float, float, float, float, float, i32, i8, [1 x i8], [6 x i8] }>
%struct.ImVector.35 = type { i32, i32, ptr }
%struct.ImGuiDataTypeStorage = type { [8 x i8] }
%struct.ImGuiComboPreviewData = type { %struct.ImRect, %struct.ImVec2, %struct.ImVec2, %struct.ImVec2, float, i32 }
%struct.ImGuiTypingSelectState = type <{ %struct.ImGuiTypingSelectRequest, [64 x i8], i32, i32, float, i8, [3 x i8] }>
%struct.ImGuiTypingSelectRequest = type { i32, i32, ptr, i8, i8, i8 }
%struct.ImGuiPlatformImeData = type { i8, %struct.ImVec2, float }
%struct.ImVector.36 = type { i32, i32, ptr }
%struct.ImChunkStream = type { %struct.ImVector.34 }
%struct.ImChunkStream.37 = type { %struct.ImVector.34 }
%struct.ImVector.38 = type { i32, i32, ptr }
%struct.ImGuiErrorRecoveryState = type { i16, i16, i16, i16, i16, i16, i16, i16, i16, i16, i16 }
%struct.ImGuiTextBuffer = type { %struct.ImVector.34 }
%struct.ImGuiTextIndex = type <{ %struct.ImVector.19, i32, [4 x i8] }>
%struct.ImGuiMetricsConfig = type { i8, i8, i8, i8, i8, i8, i8, i8, i8, i32, i32, i32, i32 }
%struct.ImGuiIDStackTool = type { i32, i32, i32, %struct.ImVector.39, i8, float }
%struct.ImVector.39 = type { i32, i32, ptr }
%struct.ImGuiDebugAllocInfo = type { i32, i32, i16, [6 x %struct.ImGuiDebugAllocEntry] }
%struct.ImGuiDebugAllocEntry = type { i32, i16, i16 }
%struct.ImVector.34 = type { i32, i32, ptr }

@GImGui = external global ptr, align 8
@.str.19 = private unnamed_addr constant [6 x i8] c"##min\00", align 1
@.str.20 = private unnamed_addr constant [6 x i8] c"##max\00", align 1

; Function Attrs: inlinehint mustprogress nounwind uwtable
define internal noundef float @_ZL5ImMaxIfET_S0_S0_(float noundef %0, float noundef %1) #2 {
  %3 = alloca float, align 4
  %4 = alloca float, align 4
  store float %0, ptr %3, align 4, !tbaa !69
  store float %1, ptr %4, align 4, !tbaa !69
  %5 = load float, ptr %3, align 4, !tbaa !69
  %6 = load float, ptr %4, align 4, !tbaa !69
  %7 = fcmp oge float %5, %6
  br i1 %7, label %8, label %10

8:                                                ; preds = %2
  %9 = load float, ptr %3, align 4, !tbaa !69
  br label %12

10:                                               ; preds = %2
  %11 = load float, ptr %4, align 4, !tbaa !69
  br label %12

12:                                               ; preds = %10, %8
  %13 = phi float [ %9, %8 ], [ %11, %10 ]
  ret float %13
}

; Function Attrs: inlinehint mustprogress nounwind uwtable
define internal noundef float @_ZL5ImMinIfET_S0_S0_(float noundef %0, float noundef %1) #2 {
  %3 = alloca float, align 4
  %4 = alloca float, align 4
  store float %0, ptr %3, align 4, !tbaa !69
  store float %1, ptr %4, align 4, !tbaa !69
  %5 = load float, ptr %3, align 4, !tbaa !69
  %6 = load float, ptr %4, align 4, !tbaa !69
  %7 = fcmp olt float %5, %6
  br i1 %7, label %8, label %10

8:                                                ; preds = %2
  %9 = load float, ptr %3, align 4, !tbaa !69
  br label %12

10:                                               ; preds = %2
  %11 = load float, ptr %4, align 4, !tbaa !69
  br label %12

12:                                               ; preds = %10, %8
  %13 = phi float [ %9, %8 ], [ %11, %10 ]
  ret float %13
}

; Function Attrs: inlinehint mustprogress nounwind uwtable
define linkonce_odr noundef ptr @_ZN5ImGui16GetCurrentWindowEv() #2 comdat {
  %1 = alloca ptr, align 8
  call void @llvm.lifetime.start.p0(i64 8, ptr %1) #17
  %2 = load ptr, ptr @GImGui, align 8, !tbaa !64
  store ptr %2, ptr %1, align 8, !tbaa !64
  %3 = load ptr, ptr %1, align 8, !tbaa !64
  %4 = getelementptr inbounds nuw %struct.ImGuiContext, ptr %3, i32 0, i32 34
  %5 = load ptr, ptr %4, align 8, !tbaa !173
  %6 = getelementptr inbounds nuw %struct.ImGuiWindow, ptr %5, i32 0, i32 38
  store i8 1, ptr %6, align 4, !tbaa !174
  %7 = load ptr, ptr %1, align 8, !tbaa !64
  %8 = getelementptr inbounds nuw %struct.ImGuiContext, ptr %7, i32 0, i32 34
  %9 = load ptr, ptr %8, align 8, !tbaa !173
  call void @llvm.lifetime.end.p0(i64 8, ptr %1) #17
  ret ptr %9
}

; Function Attrs: mustprogress uwtable
define noundef zeroext i1 @_ZN5ImGui15DragFloatRange2EPKcPfS2_fffS1_S1_i(ptr noundef %0, ptr noundef %1, ptr noundef %2, float noundef %3, float noundef %4, float noundef %5, ptr noundef %6, ptr noundef %7, i32 noundef %8) #9 {
  %10 = alloca i1, align 1
  %11 = alloca ptr, align 8
  %12 = alloca ptr, align 8
  %13 = alloca ptr, align 8
  %14 = alloca float, align 4
  %15 = alloca float, align 4
  %16 = alloca float, align 4
  %17 = alloca ptr, align 8
  %18 = alloca ptr, align 8
  %19 = alloca i32, align 4
  %20 = alloca ptr, align 8
  %21 = alloca i32, align 4
  %22 = alloca ptr, align 8
  %23 = alloca float, align 4
  %24 = alloca float, align 4
  %25 = alloca i32, align 4
  %26 = alloca i8, align 1
  %27 = alloca float, align 4
  %28 = alloca float, align 4
  %29 = alloca i32, align 4
  store ptr %0, ptr %11, align 8, !tbaa !3
  store ptr %1, ptr %12, align 8, !tbaa !322
  store ptr %2, ptr %13, align 8, !tbaa !322
  store float %3, ptr %14, align 4, !tbaa !69
  store float %4, ptr %15, align 4, !tbaa !69
  store float %5, ptr %16, align 4, !tbaa !69
  store ptr %6, ptr %17, align 8, !tbaa !3
  store ptr %7, ptr %18, align 8, !tbaa !3
  store i32 %8, ptr %19, align 4, !tbaa !8
  call void @llvm.lifetime.start.p0(i64 8, ptr %20) #17
  %30 = call noundef ptr @_ZN5ImGui16GetCurrentWindowEv()
  store ptr %30, ptr %20, align 8, !tbaa !10
  %31 = load ptr, ptr %20, align 8, !tbaa !10
  %32 = getelementptr inbounds nuw %struct.ImGuiWindow, ptr %31, i32 0, i32 41
  %33 = load i8, ptr %32, align 1, !tbaa !12, !range !62, !noundef !63
  %34 = trunc i8 %33 to i1
  br i1 %34, label %35, label %36

35:                                               ; preds = %9
  store i1 false, ptr %10, align 1
  store i32 1, ptr %21, align 4
  br label %134

36:                                               ; preds = %9
  call void @llvm.lifetime.start.p0(i64 8, ptr %22) #17
  %37 = load ptr, ptr @GImGui, align 8, !tbaa !64
  store ptr %37, ptr %22, align 8, !tbaa !64
  %38 = load ptr, ptr %11, align 8, !tbaa !3
  call void @_ZN5ImGui6PushIDEPKc(ptr noundef %38)
  call void @_ZN5ImGui10BeginGroupEv()
  %39 = call noundef float @_ZN5ImGui13CalcItemWidthEv()
  call void @_ZN5ImGui20PushMultiItemsWidthsEif(i32 noundef 2, float noundef %39)
  call void @llvm.lifetime.start.p0(i64 4, ptr %23) #17
  %40 = load float, ptr %15, align 4, !tbaa !69
  %41 = load float, ptr %16, align 4, !tbaa !69
  %42 = fcmp oge float %40, %41
  br i1 %42, label %43, label %44

43:                                               ; preds = %36
  br label %46

44:                                               ; preds = %36
  %45 = load float, ptr %15, align 4, !tbaa !69
  br label %46

46:                                               ; preds = %44, %43
  %47 = phi float [ 0xC7EFFFFFE0000000, %43 ], [ %45, %44 ]
  store float %47, ptr %23, align 4, !tbaa !69
  call void @llvm.lifetime.start.p0(i64 4, ptr %24) #17
  %48 = load float, ptr %15, align 4, !tbaa !69
  %49 = load float, ptr %16, align 4, !tbaa !69
  %50 = fcmp oge float %48, %49
  br i1 %50, label %51, label %54

51:                                               ; preds = %46
  %52 = load ptr, ptr %13, align 8, !tbaa !322
  %53 = load float, ptr %52, align 4, !tbaa !69
  br label %59

54:                                               ; preds = %46
  %55 = load float, ptr %16, align 4, !tbaa !69
  %56 = load ptr, ptr %13, align 8, !tbaa !322
  %57 = load float, ptr %56, align 4, !tbaa !69
  %58 = call noundef float @_ZL5ImMinIfET_S0_S0_(float noundef %55, float noundef %57)
  br label %59

59:                                               ; preds = %54, %51
  %60 = phi float [ %53, %51 ], [ %58, %54 ]
  store float %60, ptr %24, align 4, !tbaa !69
  call void @llvm.lifetime.start.p0(i64 4, ptr %25) #17
  %61 = load i32, ptr %19, align 4, !tbaa !8
  %62 = load float, ptr %23, align 4, !tbaa !69
  %63 = load float, ptr %24, align 4, !tbaa !69
  %64 = fcmp oeq float %62, %63
  %65 = select i1 %64, i32 2097152, i32 0
  %66 = or i32 %61, %65
  store i32 %66, ptr %25, align 4, !tbaa !8
  call void @llvm.lifetime.start.p0(i64 1, ptr %26) #17
  %67 = load ptr, ptr %12, align 8, !tbaa !322
  %68 = load float, ptr %14, align 4, !tbaa !69
  %69 = load ptr, ptr %17, align 8, !tbaa !3
  %70 = load i32, ptr %25, align 4, !tbaa !8
  %71 = call noundef zeroext i1 @_ZN5ImGui10DragScalarEPKciPvfPKvS4_S1_i(ptr noundef @.str.19, i32 noundef 8, ptr noundef %67, float noundef %68, ptr noundef %23, ptr noundef %24, ptr noundef %69, i32 noundef %70)
  %72 = zext i1 %71 to i8
  store i8 %72, ptr %26, align 1, !tbaa !70
  call void @_ZN5ImGui12PopItemWidthEv()
  %73 = load ptr, ptr %22, align 8, !tbaa !64
  %74 = getelementptr inbounds nuw %struct.ImGuiContext, ptr %73, i32 0, i32 4
  %75 = getelementptr inbounds nuw %struct.ImGuiStyle, ptr %74, i32 0, i32 17
  %76 = getelementptr inbounds nuw %struct.ImVec2, ptr %75, i32 0, i32 0
  %77 = load float, ptr %76, align 8, !tbaa !411
  call void @_ZN5ImGui8SameLineEff(float noundef 0.000000e+00, float noundef %77)
  call void @llvm.lifetime.start.p0(i64 4, ptr %27) #17
  %78 = load float, ptr %15, align 4, !tbaa !69
  %79 = load float, ptr %16, align 4, !tbaa !69
  %80 = fcmp oge float %78, %79
  br i1 %80, label %81, label %84

81:                                               ; preds = %59
  %82 = load ptr, ptr %12, align 8, !tbaa !322
  %83 = load float, ptr %82, align 4, !tbaa !69
  br label %89

84:                                               ; preds = %59
  %85 = load float, ptr %15, align 4, !tbaa !69
  %86 = load ptr, ptr %12, align 8, !tbaa !322
  %87 = load float, ptr %86, align 4, !tbaa !69
  %88 = call noundef float @_ZL5ImMaxIfET_S0_S0_(float noundef %85, float noundef %87)
  br label %89

89:                                               ; preds = %84, %81
  %90 = phi float [ %83, %81 ], [ %88, %84 ]
  store float %90, ptr %27, align 4, !tbaa !69
  call void @llvm.lifetime.start.p0(i64 4, ptr %28) #17
  %91 = load float, ptr %15, align 4, !tbaa !69
  %92 = load float, ptr %16, align 4, !tbaa !69
  %93 = fcmp oge float %91, %92
  br i1 %93, label %94, label %95

94:                                               ; preds = %89
  br label %97

95:                                               ; preds = %89
  %96 = load float, ptr %16, align 4, !tbaa !69
  br label %97

97:                                               ; preds = %95, %94
  %98 = phi float [ 0x47EFFFFFE0000000, %94 ], [ %96, %95 ]
  store float %98, ptr %28, align 4, !tbaa !69
  call void @llvm.lifetime.start.p0(i64 4, ptr %29) #17
  %99 = load i32, ptr %19, align 4, !tbaa !8
  %100 = load float, ptr %27, align 4, !tbaa !69
  %101 = load float, ptr %28, align 4, !tbaa !69
  %102 = fcmp oeq float %100, %101
  %103 = select i1 %102, i32 2097152, i32 0
  %104 = or i32 %99, %103
  store i32 %104, ptr %29, align 4, !tbaa !8
  %105 = load ptr, ptr %13, align 8, !tbaa !322
  %106 = load float, ptr %14, align 4, !tbaa !69
  %107 = load ptr, ptr %18, align 8, !tbaa !3
  %108 = icmp ne ptr %107, null
  br i1 %108, label %109, label %111

109:                                              ; preds = %97
  %110 = load ptr, ptr %18, align 8, !tbaa !3
  br label %113

111:                                              ; preds = %97
  %112 = load ptr, ptr %17, align 8, !tbaa !3
  br label %113

113:                                              ; preds = %111, %109
  %114 = phi ptr [ %110, %109 ], [ %112, %111 ]
  %115 = load i32, ptr %29, align 4, !tbaa !8
  %116 = call noundef zeroext i1 @_ZN5ImGui10DragScalarEPKciPvfPKvS4_S1_i(ptr noundef @.str.20, i32 noundef 8, ptr noundef %105, float noundef %106, ptr noundef %27, ptr noundef %28, ptr noundef %114, i32 noundef %115)
  %117 = zext i1 %116 to i32
  %118 = load i8, ptr %26, align 1, !tbaa !70, !range !62, !noundef !63
  %119 = trunc i8 %118 to i1
  %120 = zext i1 %119 to i32
  %121 = or i32 %120, %117
  %122 = icmp ne i32 %121, 0
  %123 = zext i1 %122 to i8
  store i8 %123, ptr %26, align 1, !tbaa !70
  call void @_ZN5ImGui12PopItemWidthEv()
  %124 = load ptr, ptr %22, align 8, !tbaa !64
  %125 = getelementptr inbounds nuw %struct.ImGuiContext, ptr %124, i32 0, i32 4
  %126 = getelementptr inbounds nuw %struct.ImGuiStyle, ptr %125, i32 0, i32 17
  %127 = getelementptr inbounds nuw %struct.ImVec2, ptr %126, i32 0, i32 0
  %128 = load float, ptr %127, align 8, !tbaa !411
  call void @_ZN5ImGui8SameLineEff(float noundef 0.000000e+00, float noundef %128)
  %129 = load ptr, ptr %11, align 8, !tbaa !3
  %130 = load ptr, ptr %11, align 8, !tbaa !3
  %131 = call noundef ptr @_ZN5ImGui19FindRenderedTextEndEPKcS1_(ptr noundef %130, ptr noundef null)
  call void @_ZN5ImGui6TextExEPKcS1_i(ptr noundef %129, ptr noundef %131, i32 noundef 0)
  call void @_ZN5ImGui8EndGroupEv()
  call void @_ZN5ImGui5PopIDEv()
  %132 = load i8, ptr %26, align 1, !tbaa !70, !range !62, !noundef !63
  %133 = trunc i8 %132 to i1
  store i1 %133, ptr %10, align 1
  store i32 1, ptr %21, align 4
  call void @llvm.lifetime.end.p0(i64 4, ptr %29) #17
  call void @llvm.lifetime.end.p0(i64 4, ptr %28) #17
  call void @llvm.lifetime.end.p0(i64 4, ptr %27) #17
  call void @llvm.lifetime.end.p0(i64 1, ptr %26) #17
  call void @llvm.lifetime.end.p0(i64 4, ptr %25) #17
  call void @llvm.lifetime.end.p0(i64 4, ptr %24) #17
  call void @llvm.lifetime.end.p0(i64 4, ptr %23) #17
  call void @llvm.lifetime.end.p0(i64 8, ptr %22) #17
  br label %134

134:                                              ; preds = %113, %35
  call void @llvm.lifetime.end.p0(i64 8, ptr %20) #17
  %135 = load i1, ptr %10, align 1
  ret i1 %135
}