; Function Attrs: mustprogress uwtable
define noundef zeroext i1 @_ZN5ImGui15DragFloatRange2EPKcPfS2_fffS1_S1_i(ptr noundef %0, ptr noundef %1, ptr noundef %2, float noundef %3, float noundef %4, float noundef %5, ptr noundef %6, ptr noundef %7, i32 noundef %8) local_unnamed_addr #6 {
  %10 = alloca float, align 4
  %11 = alloca float, align 4
  %12 = alloca float, align 4
  %13 = alloca float, align 4
  %14 = load ptr, ptr @GImGui, align 8, !tbaa !3
  %15 = getelementptr inbounds nuw i8, ptr %14, i64 5016
  %16 = load ptr, ptr %15, align 8, !tbaa !8
  %17 = getelementptr inbounds nuw i8, ptr %16, i64 204
  store i8 1, ptr %17, align 4, !tbaa !130
  %18 = getelementptr inbounds nuw i8, ptr %16, i64 207
  %19 = load i8, ptr %18, align 1, !tbaa !152, !range !153, !noundef !154
  %20 = trunc nuw i8 %19 to i1
  br i1 %20, label %48, label %21

21:                                               ; preds = %9
  tail call void @_ZN5ImGui6PushIDEPKc(ptr noundef %0)
  tail call void @_ZN5ImGui10BeginGroupEv()
  %22 = tail call noundef float @_ZN5ImGui13CalcItemWidthEv()
  tail call void @_ZN5ImGui20PushMultiItemsWidthsEif(i32 noundef 2, float noundef %22)
  call void @llvm.lifetime.start.p0(i64 4, ptr nonnull %10) #44
  %23 = fcmp oge float %4, %5
  %24 = select i1 %23, float 0xC7EFFFFFE0000000, float %4
  store float %24, ptr %10, align 4, !tbaa !191
  call void @llvm.lifetime.start.p0(i64 4, ptr nonnull %11) #44
  %25 = load float, ptr %2, align 4, !tbaa !191
  %26 = fcmp olt float %5, %25
  %27 = select i1 %26, float %5, float %25
  %28 = select i1 %23, float %25, float %27
  store float %28, ptr %11, align 4, !tbaa !191
  %29 = fcmp oeq float %24, %28
  %30 = select i1 %29, i32 2097152, i32 0
  %31 = or i32 %30, %8
  %32 = call noundef zeroext i1 @_ZN5ImGui10DragScalarEPKciPvfPKvS4_S1_i(ptr noundef nonnull @.str.19, i32 noundef 8, ptr noundef %1, float noundef %3, ptr noundef nonnull %10, ptr noundef nonnull %11, ptr noundef %6, i32 noundef %31)
  call void @_ZN5ImGui12PopItemWidthEv()
  %33 = getelementptr inbounds nuw i8, ptr %14, i64 3184
  %34 = load float, ptr %33, align 8, !tbaa !364
  call void @_ZN5ImGui8SameLineEff(float noundef 0.000000e+00, float noundef %34)
  call void @llvm.lifetime.start.p0(i64 4, ptr nonnull %12) #44
  %35 = load float, ptr %1, align 4, !tbaa !191
  %36 = fcmp oge float %4, %35
  %37 = select i1 %36, float %4, float %35
  %38 = select i1 %23, float 0x47EFFFFFE0000000, float %5
  %39 = select i1 %23, float %35, float %37
  store float %39, ptr %12, align 4, !tbaa !191
  call void @llvm.lifetime.start.p0(i64 4, ptr nonnull %13) #44
  store float %38, ptr %13, align 4, !tbaa !191
  %40 = fcmp oeq float %39, %38
  %41 = select i1 %40, i32 2097152, i32 0
  %42 = or i32 %41, %8
  %.not = icmp eq ptr %7, null
  %43 = select i1 %.not, ptr %6, ptr %7
  %44 = call noundef zeroext i1 @_ZN5ImGui10DragScalarEPKciPvfPKvS4_S1_i(ptr noundef nonnull @.str.20, i32 noundef 8, ptr noundef nonnull %2, float noundef %3, ptr noundef nonnull %12, ptr noundef nonnull %13, ptr noundef %43, i32 noundef %42)
  %45 = or i1 %32, %44
  call void @_ZN5ImGui12PopItemWidthEv()
  %46 = load float, ptr %33, align 8, !tbaa !364
  call void @_ZN5ImGui8SameLineEff(float noundef 0.000000e+00, float noundef %46)
  %47 = call noundef ptr @_ZN5ImGui19FindRenderedTextEndEPKcS1_(ptr noundef %0, ptr noundef null)
  call void @_ZN5ImGui6TextExEPKcS1_i(ptr noundef %0, ptr noundef %47, i32 noundef 0)
  call void @_ZN5ImGui8EndGroupEv()
  call void @_ZN5ImGui5PopIDEv()
  call void @llvm.lifetime.end.p0(i64 4, ptr nonnull %13) #44
  call void @llvm.lifetime.end.p0(i64 4, ptr nonnull %12) #44
  call void @llvm.lifetime.end.p0(i64 4, ptr nonnull %11) #44
  call void @llvm.lifetime.end.p0(i64 4, ptr nonnull %10) #44
  br label %48

48:                                               ; preds = %9, %21
  %.0 = phi i1 [ %45, %21 ], [ false, %9 ]
  ret i1 %.0
}